target datalayout = "e-m:e-p270:32:32-p271:32:32-p272:64:64-i64:64-i128:128-f80:128-n8:16:32:64-S128"
target triple = "x86_64-pc-linux-gnu"

%struct.SDL_Tray = type { ptr, ptr, [21 x i8], [256 x i8], ptr }

@g_object_unref = internal global ptr null, align 8

; Function Attrs: nounwind uwtable
define hidden void @SDL_DestroyTray_REAL(ptr noundef %0) #0 {
  %2 = alloca ptr, align 8
  store ptr %0, ptr %2, align 8
  %3 = load ptr, ptr %2, align 8
  %4 = call zeroext i1 @SDL_ObjectValid(ptr noundef %3, i32 noundef 11)
  br i1 %4, label %6, label %5

5:                                                ; preds = %1
  br label %60

6:                                                ; preds = %1
  %7 = load ptr, ptr %2, align 8
  call void @SDL_UnregisterTray(ptr noundef %7)
  %8 = load ptr, ptr %2, align 8
  %9 = getelementptr inbounds nuw %struct.SDL_Tray, ptr %8, i32 0, i32 1
  %10 = load ptr, ptr %9, align 8
  %11 = icmp ne ptr %10, null
  br i1 %11, label %12, label %16

12:                                               ; preds = %6
  %13 = load ptr, ptr %2, align 8
  %14 = getelementptr inbounds nuw %struct.SDL_Tray, ptr %13, i32 0, i32 1
  %15 = load ptr, ptr %14, align 8
  call void @DestroySDLMenu(ptr noundef %15)
  br label %16

16:                                               ; preds = %12, %6
  %17 = load ptr, ptr %2, align 8
  %18 = getelementptr inbounds nuw %struct.SDL_Tray, ptr %17, i32 0, i32 3
  %19 = getelementptr inbounds [256 x i8], ptr %18, i64 0, i64 0
  %20 = load i8, ptr %19, align 1
  %21 = icmp ne i8 %20, 0
  br i1 %21, label %22, label %27

22:                                               ; preds = %16
  %23 = load ptr, ptr %2, align 8
  %24 = getelementptr inbounds nuw %struct.SDL_Tray, ptr %23, i32 0, i32 3
  %25 = getelementptr inbounds [256 x i8], ptr %24, i64 0, i64 0
  %26 = call zeroext i1 @SDL_RemovePath_REAL(ptr noundef %25)
  br label %27

27:                                               ; preds = %22, %16
  %28 = load ptr, ptr %2, align 8
  %29 = getelementptr inbounds nuw %struct.SDL_Tray, ptr %28, i32 0, i32 2
  %30 = getelementptr inbounds [21 x i8], ptr %29, i64 0, i64 0
  %31 = load i8, ptr %30, align 8
  %32 = icmp ne i8 %31, 0
  br i1 %32, label %33, label %38

33:                                               ; preds = %27
  %34 = load ptr, ptr %2, align 8
  %35 = getelementptr inbounds nuw %struct.SDL_Tray, ptr %34, i32 0, i32 2
  %36 = getelementptr inbounds [21 x i8], ptr %35, i64 0, i64 0
  %37 = call zeroext i1 @SDL_RemovePath_REAL(ptr noundef %36)
  br label %38

38:                                               ; preds = %33, %27
  %39 = load ptr, ptr %2, align 8
  %40 = getelementptr inbounds nuw %struct.SDL_Tray, ptr %39, i32 0, i32 4
  %41 = load ptr, ptr %40, align 8
  %42 = icmp ne ptr %41, null
  br i1 %42, label %43, label %48

43:                                               ; preds = %38
  %44 = load ptr, ptr @g_object_unref, align 8
  %45 = load ptr, ptr %2, align 8
  %46 = getelementptr inbounds nuw %struct.SDL_Tray, ptr %45, i32 0, i32 4
  %47 = load ptr, ptr %46, align 8
  call void %44(ptr noundef %47)
  br label %48

48:                                               ; preds = %43, %38
  %49 = load ptr, ptr %2, align 8
  %50 = getelementptr inbounds nuw %struct.SDL_Tray, ptr %49, i32 0, i32 0
  %51 = load ptr, ptr %50, align 8
  %52 = icmp ne ptr %51, null
  br i1 %52, label %53, label %58

53:                                               ; preds = %48
  %54 = load ptr, ptr @g_object_unref, align 8
  %55 = load ptr, ptr %2, align 8
  %56 = getelementptr inbounds nuw %struct.SDL_Tray, ptr %55, i32 0, i32 0
  %57 = load ptr, ptr %56, align 8
  call void %54(ptr noundef %57)
  br label %58

58:                                               ; preds = %53, %48
  %59 = load ptr, ptr %2, align 8
  call void @SDL_free_REAL(ptr noundef %59)
  br label %60

60:                                               ; preds = %58, %5
  ret void
}