; Function Attrs: nounwind uwtable
define hidden void @SDL_DestroyTray_REAL(ptr noundef %0) local_unnamed_addr #0 {
  %2 = tail call zeroext i1 @SDL_ObjectValid(ptr noundef %0, i32 noundef 11) #10
  br i1 %2, label %3, label %27

3:                                                ; preds = %1
  tail call void @SDL_UnregisterTray(ptr noundef %0) #10
  %4 = getelementptr inbounds nuw i8, ptr %0, i64 8
  %5 = load ptr, ptr %4, align 8
  %.not = icmp eq ptr %5, null
  br i1 %.not, label %7, label %6

6:                                                ; preds = %3
  tail call fastcc void @DestroySDLMenu(ptr noundef %5)
  br label %7

7:                                                ; preds = %6, %3
  %8 = getelementptr inbounds nuw i8, ptr %0, i64 37
  %9 = load i8, ptr %8, align 1
  %.not15 = icmp eq i8 %9, 0
  br i1 %.not15, label %12, label %10

10:                                               ; preds = %7
  %11 = tail call zeroext i1 @SDL_RemovePath_REAL(ptr noundef nonnull %8) #10
  br label %12

12:                                               ; preds = %10, %7
  %13 = getelementptr inbounds nuw i8, ptr %0, i64 16
  %14 = load i8, ptr %13, align 8
  %.not16 = icmp eq i8 %14, 0
  br i1 %.not16, label %17, label %15

15:                                               ; preds = %12
  %16 = tail call zeroext i1 @SDL_RemovePath_REAL(ptr noundef nonnull %13) #10
  br label %17

17:                                               ; preds = %15, %12
  %18 = getelementptr inbounds nuw i8, ptr %0, i64 296
  %19 = load ptr, ptr %18, align 8
  %.not17 = icmp eq ptr %19, null
  br i1 %.not17, label %22, label %20

20:                                               ; preds = %17
  %21 = load ptr, ptr @g_object_unref, align 8
  tail call void %21(ptr noundef nonnull %19) #10
  br label %22

22:                                               ; preds = %20, %17
  %23 = load ptr, ptr %0, align 8
  %.not18 = icmp eq ptr %23, null
  br i1 %.not18, label %26, label %24

24:                                               ; preds = %22
  %25 = load ptr, ptr @g_object_unref, align 8
  tail call void %25(ptr noundef nonnull %23) #10
  br label %26

26:                                               ; preds = %24, %22
  tail call void @SDL_free_REAL(ptr noundef nonnull %0) #10
  br label %27

27:                                               ; preds = %1, %26
  ret void
}